; Function Attrs: mustprogress nofree nosync nounwind willreturn memory(argmem: read) uwtable
define dso_local noundef zeroext i1 @_ZN7VString9wildmatchEPKcS1_(ptr noundef readonly captures(none) %0, ptr noundef readonly captures(none) %1) #4 align 2 {
  br label %3

3:                                                ; preds = %15, %2
  %.013 = phi ptr [ %0, %2 ], [ %16, %15 ]
  %.0 = phi ptr [ %1, %2 ], [ %17, %15 ]
  %4 = load i8, ptr %.0, align 1, !tbaa !13
  switch i8 %4, label %5 [
    i8 0, label %18
    i8 42, label %7
  ]

5:                                                ; preds = %3
  %6 = load i8, ptr %.013, align 1, !tbaa !13
  %.not19 = icmp eq i8 %6, %4
  %.not20 = icmp eq i8 %4, 63
  %or.cond = or i1 %.not20, %.not19
  br i1 %or.cond, label %15, label %.loopexit

7:                                                ; preds = %3
  %8 = getelementptr inbounds nuw i8, ptr %.0, i64 1
  %9 = load i8, ptr %8, align 1, !tbaa !13
  %.not18 = icmp eq i8 %9, 0
  br i1 %.not18, label %.loopexit, label %.preheader

.preheader:                                       ; preds = %7, %11
  %.1 = phi ptr [ %12, %11 ], [ %.013, %7 ]
  %10 = tail call noundef zeroext i1 @_ZN7VString10wildmatchiEPKcS1_(ptr noundef %.1, ptr noundef nonnull %8)
  br i1 %10, label %.loopexit, label %11

11:                                               ; preds = %.preheader
  %12 = getelementptr inbounds nuw i8, ptr %.1, i64 1
  %13 = load i8, ptr %12, align 1, !tbaa !13
  %14 = icmp eq i8 %13, 0
  br i1 %14, label %.loopexit, label %.preheader, !llvm.loop !14

15:                                               ; preds = %5
  %16 = getelementptr inbounds nuw i8, ptr %.013, i64 1
  %17 = getelementptr inbounds nuw i8, ptr %.0, i64 1
  br label %3, !llvm.loop !16

18:                                               ; preds = %3
  %19 = load i8, ptr %.013, align 1, !tbaa !13
  %20 = icmp eq i8 %19, 0
  br label %.loopexit

.loopexit:                                        ; preds = %5, %.preheader, %11, %7, %18
  %.014 = phi i1 [ %20, %18 ], [ true, %7 ], [ %10, %11 ], [ %10, %.preheader ], [ false, %5 ]
  ret i1 %.014
}